target datalayout = "e-m:e-p270:32:32-p271:32:32-p272:64:64-i64:64-i128:128-f80:128-n8:16:32:64-S128"
target triple = "x86_64-unknown-linux-gnu"

%"class.std::set.0" = type { %"class.std::_Rb_tree.1" }
%"class.std::_Rb_tree.1" = type { %"struct.std::_Rb_tree<QuantLib::Observer *, QuantLib::Observer *, std::_Identity<QuantLib::Observer *>, std::less<QuantLib::Observer *>>::_Rb_tree_impl" }
%"struct.std::_Rb_tree<QuantLib::Observer *, QuantLib::Observer *, std::_Identity<QuantLib::Observer *>, std::less<QuantLib::Observer *>>::_Rb_tree_impl" = type { [8 x i8], %"struct.std::_Rb_tree_header" }
%"struct.std::_Rb_tree_header" = type { %"struct.std::_Rb_tree_node_base", i64 }
%"struct.std::_Rb_tree_node_base" = type { i32, ptr, ptr, ptr }
%"class.QuantLib::Date" = type { i64 }
%"class.boost::detail::shared_count" = type { ptr }
%"class.std::set" = type { %"class.std::_Rb_tree" }
%"class.std::_Rb_tree" = type { %"struct.std::_Rb_tree<boost::shared_ptr<QuantLib::Observable>, boost::shared_ptr<QuantLib::Observable>, std::_Identity<boost::shared_ptr<QuantLib::Observable>>, std::less<boost::shared_ptr<QuantLib::Observable>>>::_Rb_tree_impl" }
%"struct.std::_Rb_tree<boost::shared_ptr<QuantLib::Observable>, boost::shared_ptr<QuantLib::Observable>, std::_Identity<boost::shared_ptr<QuantLib::Observable>>, std::less<boost::shared_ptr<QuantLib::Observable>>>::_Rb_tree_impl" = type { [8 x i8], %"struct.std::_Rb_tree_header" }
%"class.QuantLib::Observable" = type { ptr, %"class.std::set.0" }
%"class.QuantLib::Observer" = type { ptr, %"class.std::set" }
%"class.QuantLib::RiskyAssetSwapOption" = type { %"class.QuantLib::Instrument.base", %"class.boost::shared_ptr.27", %"class.QuantLib::Date", double, double, %"class.QuantLib::Observable", %"class.QuantLib::Observer" }
%"class.QuantLib::Instrument.base" = type { %"class.QuantLib::LazyObject.base", double, double, %"class.QuantLib::Date", %"class.std::map", %"class.boost::shared_ptr.33" }
%"class.QuantLib::LazyObject.base" = type <{ ptr, i8, i8, i8, i8 }>
%"class.std::map" = type { %"class.std::_Rb_tree.28" }
%"class.std::_Rb_tree.28" = type { %"struct.std::_Rb_tree<std::__cxx11::basic_string<char>, std::pair<const std::__cxx11::basic_string<char>, boost::any>, std::_Select1st<std::pair<const std::__cxx11::basic_string<char>, boost::any>>, std::less<std::__cxx11::basic_string<char>>>::_Rb_tree_impl" }
%"struct.std::_Rb_tree<std::__cxx11::basic_string<char>, std::pair<const std::__cxx11::basic_string<char>, boost::any>, std::_Select1st<std::pair<const std::__cxx11::basic_string<char>, boost::any>>, std::less<std::__cxx11::basic_string<char>>>::_Rb_tree_impl" = type { [8 x i8], %"struct.std::_Rb_tree_header" }
%"class.boost::shared_ptr.33" = type { ptr, %"class.boost::detail::shared_count" }
%"class.boost::shared_ptr.27" = type { ptr, %"class.boost::detail::shared_count" }

; Function Attrs: mustprogress nounwind uwtable
define linkonce_odr void @_ZN5boost6detail12shared_countC2EOS1_(ptr noundef nonnull align 8 dereferenceable(8) %this, ptr noundef nonnull align 8 dereferenceable(8) %r) unnamed_addr #1 comdat align 2 {
entry:
  %this.addr = alloca ptr, align 8
  %r.addr = alloca ptr, align 8
  store ptr %this, ptr %this.addr, align 8, !tbaa !3
  store ptr %r, ptr %r.addr, align 8, !tbaa !3
  %this1 = load ptr, ptr %this.addr, align 8
  %pi_ = getelementptr inbounds nuw %"class.boost::detail::shared_count", ptr %this1, i32 0, i32 0
  %0 = load ptr, ptr %r.addr, align 8, !tbaa !3
  %pi_2 = getelementptr inbounds nuw %"class.boost::detail::shared_count", ptr %0, i32 0, i32 0
  %1 = load ptr, ptr %pi_2, align 8, !tbaa !126
  store ptr %1, ptr %pi_, align 8, !tbaa !126
  %2 = load ptr, ptr %r.addr, align 8, !tbaa !3
  %pi_3 = getelementptr inbounds nuw %"class.boost::detail::shared_count", ptr %2, i32 0, i32 0
  store ptr null, ptr %pi_3, align 8, !tbaa !126
  ret void
}

; Function Attrs: mustprogress nounwind uwtable
define linkonce_odr void @_ZN5boost10shared_ptrIN8QuantLib14RiskyAssetSwapEEC2EOS3_(ptr noundef nonnull align 8 dereferenceable(16) %this, ptr noundef nonnull align 8 dereferenceable(16) %r) unnamed_addr #1 comdat align 2 {
entry:
  %this.addr = alloca ptr, align 8
  %r.addr = alloca ptr, align 8
  store ptr %this, ptr %this.addr, align 8, !tbaa !3
  store ptr %r, ptr %r.addr, align 8, !tbaa !3
  %this1 = load ptr, ptr %this.addr, align 8
  %px = getelementptr inbounds nuw %"class.boost::shared_ptr.27", ptr %this1, i32 0, i32 0
  %0 = load ptr, ptr %r.addr, align 8, !tbaa !3
  %px2 = getelementptr inbounds nuw %"class.boost::shared_ptr.27", ptr %0, i32 0, i32 0
  %1 = load ptr, ptr %px2, align 8, !tbaa !44
  store ptr %1, ptr %px, align 8, !tbaa !44
  %pn = getelementptr inbounds nuw %"class.boost::shared_ptr.27", ptr %this1, i32 0, i32 1
  %2 = load ptr, ptr %r.addr, align 8, !tbaa !3
  %pn3 = getelementptr inbounds nuw %"class.boost::shared_ptr.27", ptr %2, i32 0, i32 1
  call void @_ZN5boost6detail12shared_countC2EOS1_(ptr noundef nonnull align 8 dereferenceable(8) %pn, ptr noundef nonnull align 8 dereferenceable(8) %pn3) #16
  %3 = load ptr, ptr %r.addr, align 8, !tbaa !3
  %px4 = getelementptr inbounds nuw %"class.boost::shared_ptr.27", ptr %3, i32 0, i32 0
  store ptr null, ptr %px4, align 8, !tbaa !44
  ret void
}

; Function Attrs: mustprogress uwtable
define void @_ZN8QuantLib20RiskyAssetSwapOptionC2EN5boost10shared_ptrINS_14RiskyAssetSwapEEERKNS_4DateEdd(ptr noundef nonnull align 8 dereferenceable(144) %this, ptr noundef %vtt, ptr noundef %asw, ptr noundef nonnull align 8 dereferenceable(8) %expiry, double noundef %marketSpread, double noundef %spreadVolatility) unnamed_addr #2 align 2 {
entry:
  %this.addr = alloca ptr, align 8
  %vtt.addr = alloca ptr, align 8
  %asw.indirect_addr = alloca ptr, align 8
  %expiry.addr = alloca ptr, align 8
  %marketSpread.addr = alloca double, align 8
  %spreadVolatility.addr = alloca double, align 8
  store ptr %this, ptr %this.addr, align 8, !tbaa !3
  store ptr %vtt, ptr %vtt.addr, align 8, !tbaa !3
  store ptr %asw, ptr %asw.indirect_addr, align 8, !tbaa !3
  store ptr %expiry, ptr %expiry.addr, align 8, !tbaa !3
  store double %marketSpread, ptr %marketSpread.addr, align 8, !tbaa !24
  store double %spreadVolatility, ptr %spreadVolatility.addr, align 8, !tbaa !24
  %this1 = load ptr, ptr %this.addr, align 8
  %vtt2 = load ptr, ptr %vtt.addr, align 8
  %0 = getelementptr inbounds ptr, ptr %vtt2, i64 1
  call void @_ZN8QuantLib10InstrumentC2Ev(ptr noundef nonnull align 8 dereferenceable(104) %this1, ptr noundef %0)
  %1 = load ptr, ptr %vtt2, align 8
  store ptr %1, ptr %this1, align 8, !tbaa !20
  %2 = getelementptr inbounds ptr, ptr %vtt2, i64 7
  %3 = load ptr, ptr %2, align 8
  %vtable = load ptr, ptr %this1, align 8, !tbaa !20
  %vbase.offset.ptr = getelementptr i8, ptr %vtable, i64 -24
  %vbase.offset = load i64, ptr %vbase.offset.ptr, align 8
  %add.ptr = getelementptr inbounds i8, ptr %this1, i64 %vbase.offset
  store ptr %3, ptr %add.ptr, align 8, !tbaa !20
  %4 = getelementptr inbounds ptr, ptr %vtt2, i64 8
  %5 = load ptr, ptr %4, align 8
  %vtable3 = load ptr, ptr %this1, align 8, !tbaa !20
  %vbase.offset.ptr4 = getelementptr i8, ptr %vtable3, i64 -32
  %vbase.offset5 = load i64, ptr %vbase.offset.ptr4, align 8
  %add.ptr6 = getelementptr inbounds i8, ptr %this1, i64 %vbase.offset5
  store ptr %5, ptr %add.ptr6, align 8, !tbaa !20
  %asw_ = getelementptr inbounds nuw %"class.QuantLib::RiskyAssetSwapOption", ptr %this1, i32 0, i32 1
  call void @_ZN5boost10shared_ptrIN8QuantLib14RiskyAssetSwapEEC2EOS3_(ptr noundef nonnull align 8 dereferenceable(16) %asw_, ptr noundef nonnull align 8 dereferenceable(16) %asw) #16
  %expiry_ = getelementptr inbounds nuw %"class.QuantLib::RiskyAssetSwapOption", ptr %this1, i32 0, i32 2
  %6 = load ptr, ptr %expiry.addr, align 8, !tbaa !3
  call void @llvm.memcpy.p0.p0.i64(ptr align 8 %expiry_, ptr align 8 %6, i64 8, i1 false), !tbaa.struct !26
  %marketSpread_ = getelementptr inbounds nuw %"class.QuantLib::RiskyAssetSwapOption", ptr %this1, i32 0, i32 3
  %7 = load double, ptr %marketSpread.addr, align 8, !tbaa !24
  store double %7, ptr %marketSpread_, align 8, !tbaa !29
  %spreadVolatility_ = getelementptr inbounds nuw %"class.QuantLib::RiskyAssetSwapOption", ptr %this1, i32 0, i32 4
  %8 = load double, ptr %spreadVolatility.addr, align 8, !tbaa !24
  store double %8, ptr %spreadVolatility_, align 8, !tbaa !43
  ret void
}