; Function Attrs: mustprogress uwtable
define void @_ZN8QuantLib20RiskyAssetSwapOptionC2EN5boost10shared_ptrINS_14RiskyAssetSwapEEERKNS_4DateEdd(ptr noundef nonnull align 8 dereferenceable(144) %this, ptr noundef %vtt, ptr nocapture noundef %asw, ptr nocapture noundef nonnull readonly align 8 dereferenceable(8) %expiry, double noundef %marketSpread, double noundef %spreadVolatility) unnamed_addr #8 align 2 {
entry:
  %0 = getelementptr inbounds i8, ptr %vtt, i64 8
  tail call void @_ZN8QuantLib10InstrumentC2Ev(ptr noundef nonnull align 8 dereferenceable(104) %this, ptr noundef nonnull %0)
  %1 = load ptr, ptr %vtt, align 8
  store ptr %1, ptr %this, align 8, !tbaa !33
  %2 = getelementptr inbounds i8, ptr %vtt, i64 56
  %3 = load ptr, ptr %2, align 8
  %vbase.offset.ptr = getelementptr i8, ptr %1, i64 -24
  %vbase.offset = load i64, ptr %vbase.offset.ptr, align 8
  %add.ptr = getelementptr inbounds i8, ptr %this, i64 %vbase.offset
  store ptr %3, ptr %add.ptr, align 8, !tbaa !33
  %4 = getelementptr inbounds i8, ptr %vtt, i64 64
  %5 = load ptr, ptr %4, align 8
  %vtable3 = load ptr, ptr %this, align 8, !tbaa !33
  %vbase.offset.ptr4 = getelementptr i8, ptr %vtable3, i64 -32
  %vbase.offset5 = load i64, ptr %vbase.offset.ptr4, align 8
  %add.ptr6 = getelementptr inbounds i8, ptr %this, i64 %vbase.offset5
  store ptr %5, ptr %add.ptr6, align 8, !tbaa !33
  %asw_ = getelementptr inbounds nuw i8, ptr %this, i64 104
  %6 = load ptr, ptr %asw, align 8, !tbaa !44
  store ptr %6, ptr %asw_, align 8, !tbaa !44
  %pn.i = getelementptr inbounds nuw i8, ptr %this, i64 112
  %pn3.i = getelementptr inbounds nuw i8, ptr %asw, i64 8
  %7 = load ptr, ptr %pn3.i, align 8, !tbaa !42
  store ptr %7, ptr %pn.i, align 8, !tbaa !42
  tail call void @llvm.memset.p0.i64(ptr noundef nonnull align 8 dereferenceable(16) %asw, i8 0, i64 16, i1 false)
  %expiry_ = getelementptr inbounds nuw i8, ptr %this, i64 120
  %8 = load i64, ptr %expiry, align 8, !tbaa !37
  store i64 %8, ptr %expiry_, align 8, !tbaa !37
  %marketSpread_ = getelementptr inbounds nuw i8, ptr %this, i64 128
  store double %marketSpread, ptr %marketSpread_, align 8, !tbaa !46
  %spreadVolatility_ = getelementptr inbounds nuw i8, ptr %this, i64 136
  store double %spreadVolatility, ptr %spreadVolatility_, align 8, !tbaa !57
  ret void
}